target datalayout = "e-m:e-p270:32:32-p271:32:32-p272:64:64-i64:64-i128:128-f80:128-n8:16:32:64-S128"
target triple = "x86_64-pc-linux-gnu"

; Function Attrs: nounwind uwtable
define internal void @uyvyToUV_c(ptr noundef %0, ptr noundef %1, ptr noundef %2, ptr noundef %3, ptr noundef %4, i32 noundef %5, ptr noundef %6, ptr noundef %7) #2 {
  %9 = alloca ptr, align 8
  %10 = alloca ptr, align 8
  %11 = alloca ptr, align 8
  %12 = alloca ptr, align 8
  %13 = alloca ptr, align 8
  %14 = alloca i32, align 4
  %15 = alloca ptr, align 8
  %16 = alloca ptr, align 8
  %17 = alloca i32, align 4
  store ptr %0, ptr %9, align 8, !tbaa !34
  store ptr %1, ptr %10, align 8, !tbaa !34
  store ptr %2, ptr %11, align 8, !tbaa !34
  store ptr %3, ptr %12, align 8, !tbaa !34
  store ptr %4, ptr %13, align 8, !tbaa !34
  store i32 %5, ptr %14, align 4, !tbaa !30
  store ptr %6, ptr %15, align 8, !tbaa !35
  store ptr %7, ptr %16, align 8, !tbaa !31
  call void @llvm.lifetime.start.p0(i64 4, ptr %17) #9
  store i32 0, ptr %17, align 4, !tbaa !30
  br label %18

18:                                               ; preds = %45, %8
  %19 = load i32, ptr %17, align 4, !tbaa !30
  %20 = load i32, ptr %14, align 4, !tbaa !30
  %21 = icmp slt i32 %19, %20
  br i1 %21, label %22, label %48

22:                                               ; preds = %18
  %23 = load ptr, ptr %12, align 8, !tbaa !34
  %24 = load i32, ptr %17, align 4, !tbaa !30
  %25 = mul nsw i32 4, %24
  %26 = add nsw i32 %25, 0
  %27 = sext i32 %26 to i64
  %28 = getelementptr inbounds i8, ptr %23, i64 %27
  %29 = load i8, ptr %28, align 1, !tbaa !36
  %30 = load ptr, ptr %9, align 8, !tbaa !34
  %31 = load i32, ptr %17, align 4, !tbaa !30
  %32 = sext i32 %31 to i64
  %33 = getelementptr inbounds i8, ptr %30, i64 %32
  store i8 %29, ptr %33, align 1, !tbaa !36
  %34 = load ptr, ptr %12, align 8, !tbaa !34
  %35 = load i32, ptr %17, align 4, !tbaa !30
  %36 = mul nsw i32 4, %35
  %37 = add nsw i32 %36, 2
  %38 = sext i32 %37 to i64
  %39 = getelementptr inbounds i8, ptr %34, i64 %38
  %40 = load i8, ptr %39, align 1, !tbaa !36
  %41 = load ptr, ptr %10, align 8, !tbaa !34
  %42 = load i32, ptr %17, align 4, !tbaa !30
  %43 = sext i32 %42 to i64
  %44 = getelementptr inbounds i8, ptr %41, i64 %43
  store i8 %40, ptr %44, align 1, !tbaa !36
  br label %45

45:                                               ; preds = %22
  %46 = load i32, ptr %17, align 4, !tbaa !30
  %47 = add nsw i32 %46, 1
  store i32 %47, ptr %17, align 4, !tbaa !30
  br label %18, !llvm.loop !40

48:                                               ; preds = %18
  call void @llvm.lifetime.end.p0(i64 4, ptr %17) #9
  ret void
}